
armjtag.elf:     file format elf32-littlearm


Disassembly of section .text:

00008000 <_start>:
    8000:	e3a0d902 	mov	sp, #32768	; 0x8000
    8004:	eb000005 	bl	8020 <kernel_main>

00008008 <hang>:
    8008:	eafffffe 	b	8008 <hang>

0000800c <write_to_address>:
    800c:	e5801000 	str	r1, [r0]
    8010:	e12fff1e 	bx	lr

00008014 <read_from_address>:
    8014:	e5900000 	ldr	r0, [r0]
    8018:	e12fff1e 	bx	lr

0000801c <delay>:
    801c:	e12fff1e 	bx	lr

00008020 <kernel_main>:
    8020:	e92d4070 	push	{r4, r5, r6, lr}
    8024:	e59f0100 	ldr	r0, [pc, #256]	; 812c <kernel_main+0x10c>
    8028:	e3a01000 	mov	r1, #0
    802c:	ebfffff6 	bl	800c <write_to_address>
    8030:	e3a04000 	mov	r4, #0
    8034:	e1a00004 	mov	r0, r4
    8038:	e2844001 	add	r4, r4, #1
    803c:	ebfffff6 	bl	801c <delay>
    8040:	e3540096 	cmp	r4, #150	; 0x96
    8044:	1afffffa 	bne	8034 <kernel_main+0x14>
    8048:	e59f00e0 	ldr	r0, [pc, #224]	; 8130 <kernel_main+0x110>
    804c:	e59f10e0 	ldr	r1, [pc, #224]	; 8134 <kernel_main+0x114>
    8050:	ebffffed 	bl	800c <write_to_address>
    8054:	e3a04000 	mov	r4, #0
    8058:	e1a00004 	mov	r0, r4
    805c:	e2844001 	add	r4, r4, #1
    8060:	ebffffed 	bl	801c <delay>
    8064:	e3540096 	cmp	r4, #150	; 0x96
    8068:	1afffffa 	bne	8058 <kernel_main+0x38>
    806c:	e3a01000 	mov	r1, #0
    8070:	e59f00b8 	ldr	r0, [pc, #184]	; 8130 <kernel_main+0x110>
    8074:	ebffffe4 	bl	800c <write_to_address>
    8078:	e59f00b8 	ldr	r0, [pc, #184]	; 8138 <kernel_main+0x118>
    807c:	ebffffe4 	bl	8014 <read_from_address>
    8080:	e3c01a07 	bic	r1, r0, #28672	; 0x7000
    8084:	e3811a02 	orr	r1, r1, #8192	; 0x2000
    8088:	e59f00a8 	ldr	r0, [pc, #168]	; 8138 <kernel_main+0x118>
    808c:	ebffffde 	bl	800c <write_to_address>
    8090:	e59f00a4 	ldr	r0, [pc, #164]	; 813c <kernel_main+0x11c>
    8094:	ebffffde 	bl	8014 <read_from_address>
    8098:	e59f30a0 	ldr	r3, [pc, #160]	; 8140 <kernel_main+0x120>
    809c:	e59f10a0 	ldr	r1, [pc, #160]	; 8144 <kernel_main+0x124>
    80a0:	e0003003 	and	r3, r0, r3
    80a4:	e1831001 	orr	r1, r3, r1
    80a8:	e59f008c 	ldr	r0, [pc, #140]	; 813c <kernel_main+0x11c>
    80ac:	ebffffd6 	bl	800c <write_to_address>
    80b0:	e59f0090 	ldr	r0, [pc, #144]	; 8148 <kernel_main+0x128>
    80b4:	e3a018f9 	mov	r1, #16318464	; 0xf90000
    80b8:	ebffffd3 	bl	800c <write_to_address>
    80bc:	e59f0084 	ldr	r0, [pc, #132]	; 8148 <kernel_main+0x128>
    80c0:	e59f1084 	ldr	r1, [pc, #132]	; 814c <kernel_main+0x12c>
    80c4:	ebffffd0 	bl	800c <write_to_address>
    80c8:	e59f0080 	ldr	r0, [pc, #128]	; 8150 <kernel_main+0x130>
    80cc:	ebffffd0 	bl	8014 <read_from_address>
    80d0:	e59f407c 	ldr	r4, [pc, #124]	; 8154 <kernel_main+0x134>
    80d4:	e1a05000 	mov	r5, r0
    80d8:	e59f0078 	ldr	r0, [pc, #120]	; 8158 <kernel_main+0x138>
    80dc:	e3a01902 	mov	r1, #32768	; 0x8000
    80e0:	ebffffc9 	bl	800c <write_to_address>
    80e4:	e59f0064 	ldr	r0, [pc, #100]	; 8150 <kernel_main+0x130>
    80e8:	ebffffc9 	bl	8014 <read_from_address>
    80ec:	e0650000 	rsb	r0, r5, r0
    80f0:	e1500004 	cmp	r0, r4
    80f4:	9afffffa 	bls	80e4 <kernel_main+0xc4>
    80f8:	e285693d 	add	r6, r5, #999424	; 0xf4000
    80fc:	e59f0058 	ldr	r0, [pc, #88]	; 815c <kernel_main+0x13c>
    8100:	e3a01902 	mov	r1, #32768	; 0x8000
    8104:	e2866d09 	add	r6, r6, #576	; 0x240
    8108:	ebffffbf 	bl	800c <write_to_address>
    810c:	e59f003c 	ldr	r0, [pc, #60]	; 8150 <kernel_main+0x130>
    8110:	ebffffbf 	bl	8014 <read_from_address>
    8114:	e0660000 	rsb	r0, r6, r0
    8118:	e1500004 	cmp	r0, r4
    811c:	9afffffa 	bls	810c <kernel_main+0xec>
    8120:	e285597a 	add	r5, r5, #1998848	; 0x1e8000
    8124:	e2855d12 	add	r5, r5, #1152	; 0x480
    8128:	eaffffea 	b	80d8 <kernel_main+0xb8>
    812c:	3f200094 	svccc	0x00200094
    8130:	3f200098 	svccc	0x00200098
    8134:	0b600010 	bleq	180817c <kernel_main+0x180015c>
    8138:	3f200000 	svccc	0x00200000
    813c:	3f200008 	svccc	0x00200008
    8140:	ff1c0e3f 			; <UNDEFINED> instruction: 0xff1c0e3f
    8144:	0061b0c0 	rsbeq	fp, r1, r0, asr #1
    8148:	3f00b408 	svccc	0x0000b408
    814c:	00f90200 	rscseq	r0, r9, r0, lsl #4
    8150:	3f00b420 	svccc	0x0000b420
    8154:	000f423f 	andeq	r4, pc, pc, lsr r2	; <UNPREDICTABLE>
    8158:	3f200020 	svccc	0x00200020
    815c:	3f20002c 	svccc	0x0020002c

Disassembly of section .ARM.attributes:

00000000 <.ARM.attributes>:
   0:	00002a41 	andeq	r2, r0, r1, asr #20
   4:	61656100 	cmnvs	r5, r0, lsl #2
   8:	01006962 	tsteq	r0, r2, ror #18
   c:	00000020 	andeq	r0, r0, r0, lsr #32
  10:	4d524105 	ldfmie	f4, [r2, #-20]	; 0xffffffec
  14:	54347620 	ldrtpl	r7, [r4], #-1568	; 0x620
  18:	08020600 	stmdaeq	r2, {r9, sl}
  1c:	12010901 	andne	r0, r1, #16384	; 0x4000
  20:	15011404 	strne	r1, [r1, #-1028]	; 0x404
  24:	18031701 	stmdane	r3, {r0, r8, r9, sl, ip}
  28:	Address 0x0000000000000028 is out of bounds.


Disassembly of section .comment:

00000000 <.comment>:
   0:	3a434347 	bcc	10d0d24 <kernel_main+0x10c8d04>
   4:	2e342820 	cdpcs	8, 3, cr2, cr4, cr0, {1}
   8:	2d332e38 	ldccs	14, cr2, [r3, #-224]!	; 0xffffff20
   c:	62753831 	rsbsvs	r3, r5, #3211264	; 0x310000
  10:	75746e75 	ldrbvc	r6, [r4, #-3701]!	; 0xe75
  14:	32312b32 	eorscc	r2, r1, #51200	; 0xc800
  18:	2e342029 	cdpcs	0, 3, cr2, cr4, cr9, {1}
  1c:	00332e38 	eorseq	r2, r3, r8, lsr lr
